; Function Attrs: nofree norecurse nosync nounwind memory(readwrite, inaccessiblemem: none) uwtable
define void @Res_SimSetGiven(ptr noundef readonly captures(none) %0, ptr noundef readonly captures(none) %1) local_unnamed_addr #7 {
  %3 = getelementptr inbounds nuw i8, ptr %0, i64 8
  %4 = load ptr, ptr %0, align 8, !tbaa !36
  %5 = getelementptr i8, ptr %4, i64 40
  %.val19 = load ptr, ptr %5, align 8, !tbaa !61
  %6 = getelementptr i8, ptr %.val19, i64 4
  %.val19.val22 = load i32, ptr %6, align 4, !tbaa !22
  %7 = icmp sgt i32 %.val19.val22, 0
  br i1 %7, label %.lr.ph25, label %.critedge

.lr.ph25:                                         ; preds = %2
  %8 = getelementptr i8, ptr %.val19, i64 8
  %9 = getelementptr inbounds nuw i8, ptr %0, i64 48
  %10 = getelementptr i8, ptr %1, i64 8
  %11 = getelementptr inbounds nuw i8, ptr %0, i64 20
  br label %12

12:                                               ; preds = %.lr.ph25, %._crit_edge
  %.val19.val31 = phi i32 [ %.val19.val22, %.lr.ph25 ], [ %.val19.val, %._crit_edge ]
  %indvars.iv28 = phi i64 [ 0, %.lr.ph25 ], [ %indvars.iv.next29, %._crit_edge ]
  %13 = load i32, ptr %3, align 8, !tbaa !37
  %14 = zext i32 %13 to i64
  %15 = icmp eq i64 %indvars.iv28, %14
  br i1 %15, label %.critedge, label %16

16:                                               ; preds = %12
  %.val20.val = load ptr, ptr %8, align 8, !tbaa !25
  %17 = getelementptr inbounds nuw ptr, ptr %.val20.val, i64 %indvars.iv28
  %18 = load ptr, ptr %17, align 8, !tbaa !19
  %19 = load ptr, ptr %9, align 8, !tbaa !26
  %20 = getelementptr inbounds nuw i8, ptr %18, i64 16
  %21 = load i32, ptr %20, align 8, !tbaa !62
  %22 = getelementptr i8, ptr %19, i64 8
  %.val18 = load ptr, ptr %22, align 8, !tbaa !25
  %23 = sext i32 %21 to i64
  %24 = getelementptr inbounds ptr, ptr %.val18, i64 %23
  %25 = load ptr, ptr %24, align 8, !tbaa !19
  %.val = load ptr, ptr %10, align 8, !tbaa !25
  %26 = getelementptr inbounds nuw ptr, ptr %.val, i64 %indvars.iv28
  %27 = load ptr, ptr %26, align 8, !tbaa !19
  %28 = load i32, ptr %11, align 4, !tbaa !3
  %29 = icmp sgt i32 %28, 0
  br i1 %29, label %.lr.ph, label %._crit_edge

.lr.ph:                                           ; preds = %16, %.lr.ph
  %indvars.iv = phi i64 [ %indvars.iv.next, %.lr.ph ], [ 0, %16 ]
  %30 = getelementptr inbounds nuw i32, ptr %27, i64 %indvars.iv
  %31 = load i32, ptr %30, align 4, !tbaa !59
  %32 = getelementptr inbounds nuw i32, ptr %25, i64 %indvars.iv
  store i32 %31, ptr %32, align 4, !tbaa !59
  %indvars.iv.next = add nuw nsw i64 %indvars.iv, 1
  %33 = load i32, ptr %11, align 4, !tbaa !3
  %34 = sext i32 %33 to i64
  %35 = icmp slt i64 %indvars.iv.next, %34
  br i1 %35, label %.lr.ph, label %._crit_edge.loopexit, !llvm.loop !83

._crit_edge.loopexit:                             ; preds = %.lr.ph
  %.val19.val.pre = load i32, ptr %6, align 4, !tbaa !22
  br label %._crit_edge

._crit_edge:                                      ; preds = %._crit_edge.loopexit, %16
  %.val19.val = phi i32 [ %.val19.val.pre, %._crit_edge.loopexit ], [ %.val19.val31, %16 ]
  %indvars.iv.next29 = add nuw nsw i64 %indvars.iv28, 1
  %36 = sext i32 %.val19.val to i64
  %37 = icmp slt i64 %indvars.iv.next29, %36
  br i1 %37, label %12, label %.critedge, !llvm.loop !84

.critedge:                                        ; preds = %12, %._crit_edge, %2
  ret void
}